target datalayout = "e-m:e-p270:32:32-p271:32:32-p272:64:64-i64:64-i128:128-f80:128-n8:16:32:64-S128"
target triple = "x86_64-pc-linux-gnu"

%struct.ui_st = type { ptr, ptr, ptr, %struct.crypto_ex_data_st, i32, ptr }
%struct.crypto_ex_data_st = type { ptr, ptr }
%struct.ui_string_st = type { i32, ptr, i32, ptr, i64, %union.anon, i32 }
%union.anon = type { %struct.anon.0 }
%struct.anon.0 = type { ptr, ptr, ptr }
%struct.anon = type { i32, i32, ptr }

@.str = private unnamed_addr constant [30 x i8] c"../openssl/crypto/ui/ui_lib.c\00", align 1
@__func__.UI_set_result_ex = private unnamed_addr constant [17 x i8] c"UI_set_result_ex\00", align 1
@.str.8 = private unnamed_addr constant [37 x i8] c"You must type in %d to %d characters\00", align 1

; Function Attrs: nounwind uwtable
define i32 @UI_set_result_ex(ptr noundef %0, ptr noundef %1, ptr noundef %2, i32 noundef %3) #0 {
  %5 = alloca i32, align 4
  %6 = alloca ptr, align 8
  %7 = alloca ptr, align 8
  %8 = alloca ptr, align 8
  %9 = alloca i32, align 4
  %10 = alloca ptr, align 8
  %11 = alloca i32, align 4
  store ptr %0, ptr %6, align 8, !tbaa !8
  store ptr %1, ptr %7, align 8, !tbaa !26
  store ptr %2, ptr %8, align 8, !tbaa !34
  store i32 %3, ptr %9, align 4, !tbaa !35
  %12 = load ptr, ptr %6, align 8, !tbaa !8
  %13 = getelementptr inbounds nuw %struct.ui_st, ptr %12, i32 0, i32 4
  %14 = load i32, ptr %13, align 8, !tbaa !18
  %15 = and i32 %14, -2
  store i32 %15, ptr %13, align 8, !tbaa !18
  %16 = load ptr, ptr %7, align 8, !tbaa !26
  %17 = getelementptr inbounds nuw %struct.ui_string_st, ptr %16, i32 0, i32 0
  %18 = load i32, ptr %17, align 8, !tbaa !32
  switch i32 %18, label %157 [
    i32 1, label %19
    i32 2, label %19
    i32 3, label %90
    i32 0, label %156
    i32 4, label %156
    i32 5, label %156
  ]

19:                                               ; preds = %4, %4
  %20 = load i32, ptr %9, align 4, !tbaa !35
  %21 = load ptr, ptr %7, align 8, !tbaa !26
  %22 = getelementptr inbounds nuw %struct.ui_string_st, ptr %21, i32 0, i32 5
  %23 = getelementptr inbounds nuw %struct.anon, ptr %22, i32 0, i32 0
  %24 = load i32, ptr %23, align 8, !tbaa !33
  %25 = icmp slt i32 %20, %24
  br i1 %25, label %26, label %39

26:                                               ; preds = %19
  %27 = load ptr, ptr %6, align 8, !tbaa !8
  %28 = getelementptr inbounds nuw %struct.ui_st, ptr %27, i32 0, i32 4
  %29 = load i32, ptr %28, align 8, !tbaa !18
  %30 = or i32 %29, 1
  store i32 %30, ptr %28, align 8, !tbaa !18
  call void @ERR_new()
  call void @ERR_set_debug(ptr noundef @.str, i32 noundef 875, ptr noundef @__func__.UI_set_result_ex)
  %31 = load ptr, ptr %7, align 8, !tbaa !26
  %32 = getelementptr inbounds nuw %struct.ui_string_st, ptr %31, i32 0, i32 5
  %33 = getelementptr inbounds nuw %struct.anon, ptr %32, i32 0, i32 0
  %34 = load i32, ptr %33, align 8, !tbaa !33
  %35 = load ptr, ptr %7, align 8, !tbaa !26
  %36 = getelementptr inbounds nuw %struct.ui_string_st, ptr %35, i32 0, i32 5
  %37 = getelementptr inbounds nuw %struct.anon, ptr %36, i32 0, i32 1
  %38 = load i32, ptr %37, align 4, !tbaa !33
  call void (i32, i32, ptr, ...) @ERR_set_error(i32 noundef 40, i32 noundef 101, ptr noundef @.str.8, i32 noundef %34, i32 noundef %38)
  store i32 -1, ptr %5, align 4
  br label %158

39:                                               ; preds = %19
  %40 = load i32, ptr %9, align 4, !tbaa !35
  %41 = load ptr, ptr %7, align 8, !tbaa !26
  %42 = getelementptr inbounds nuw %struct.ui_string_st, ptr %41, i32 0, i32 5
  %43 = getelementptr inbounds nuw %struct.anon, ptr %42, i32 0, i32 1
  %44 = load i32, ptr %43, align 4, !tbaa !33
  %45 = icmp sgt i32 %40, %44
  br i1 %45, label %46, label %59

46:                                               ; preds = %39
  %47 = load ptr, ptr %6, align 8, !tbaa !8
  %48 = getelementptr inbounds nuw %struct.ui_st, ptr %47, i32 0, i32 4
  %49 = load i32, ptr %48, align 8, !tbaa !18
  %50 = or i32 %49, 1
  store i32 %50, ptr %48, align 8, !tbaa !18
  call void @ERR_new()
  call void @ERR_set_debug(ptr noundef @.str, i32 noundef 883, ptr noundef @__func__.UI_set_result_ex)
  %51 = load ptr, ptr %7, align 8, !tbaa !26
  %52 = getelementptr inbounds nuw %struct.ui_string_st, ptr %51, i32 0, i32 5
  %53 = getelementptr inbounds nuw %struct.anon, ptr %52, i32 0, i32 0
  %54 = load i32, ptr %53, align 8, !tbaa !33
  %55 = load ptr, ptr %7, align 8, !tbaa !26
  %56 = getelementptr inbounds nuw %struct.ui_string_st, ptr %55, i32 0, i32 5
  %57 = getelementptr inbounds nuw %struct.anon, ptr %56, i32 0, i32 1
  %58 = load i32, ptr %57, align 4, !tbaa !33
  call void (i32, i32, ptr, ...) @ERR_set_error(i32 noundef 40, i32 noundef 100, ptr noundef @.str.8, i32 noundef %54, i32 noundef %58)
  store i32 -1, ptr %5, align 4
  br label %158

59:                                               ; preds = %39
  %60 = load ptr, ptr %7, align 8, !tbaa !26
  %61 = getelementptr inbounds nuw %struct.ui_string_st, ptr %60, i32 0, i32 3
  %62 = load ptr, ptr %61, align 8, !tbaa !40
  %63 = icmp eq ptr %62, null
  br i1 %63, label %64, label %65

64:                                               ; preds = %59
  call void @ERR_new()
  call void @ERR_set_debug(ptr noundef @.str, i32 noundef 891, ptr noundef @__func__.UI_set_result_ex)
  call void (i32, i32, ptr, ...) @ERR_set_error(i32 noundef 40, i32 noundef 105, ptr noundef null)
  store i32 -1, ptr %5, align 4
  br label %158

65:                                               ; preds = %59
  %66 = load ptr, ptr %7, align 8, !tbaa !26
  %67 = getelementptr inbounds nuw %struct.ui_string_st, ptr %66, i32 0, i32 3
  %68 = load ptr, ptr %67, align 8, !tbaa !40
  %69 = load ptr, ptr %8, align 8, !tbaa !34
  %70 = load i32, ptr %9, align 4, !tbaa !35
  %71 = sext i32 %70 to i64
  call void @llvm.memcpy.p0.p0.i64(ptr align 1 %68, ptr align 1 %69, i64 %71, i1 false)
  %72 = load i32, ptr %9, align 4, !tbaa !35
  %73 = load ptr, ptr %7, align 8, !tbaa !26
  %74 = getelementptr inbounds nuw %struct.ui_string_st, ptr %73, i32 0, i32 5
  %75 = getelementptr inbounds nuw %struct.anon, ptr %74, i32 0, i32 1
  %76 = load i32, ptr %75, align 4, !tbaa !33
  %77 = icmp sle i32 %72, %76
  br i1 %77, label %78, label %85

78:                                               ; preds = %65
  %79 = load ptr, ptr %7, align 8, !tbaa !26
  %80 = getelementptr inbounds nuw %struct.ui_string_st, ptr %79, i32 0, i32 3
  %81 = load ptr, ptr %80, align 8, !tbaa !40
  %82 = load i32, ptr %9, align 4, !tbaa !35
  %83 = sext i32 %82 to i64
  %84 = getelementptr inbounds i8, ptr %81, i64 %83
  store i8 0, ptr %84, align 1, !tbaa !33
  br label %85

85:                                               ; preds = %78, %65
  %86 = load i32, ptr %9, align 4, !tbaa !35
  %87 = sext i32 %86 to i64
  %88 = load ptr, ptr %7, align 8, !tbaa !26
  %89 = getelementptr inbounds nuw %struct.ui_string_st, ptr %88, i32 0, i32 4
  store i64 %87, ptr %89, align 8, !tbaa !41
  br label %157

90:                                               ; preds = %4
  call void @llvm.lifetime.start.p0(i64 8, ptr %10) #7
  %91 = load ptr, ptr %7, align 8, !tbaa !26
  %92 = getelementptr inbounds nuw %struct.ui_string_st, ptr %91, i32 0, i32 3
  %93 = load ptr, ptr %92, align 8, !tbaa !40
  %94 = icmp eq ptr %93, null
  br i1 %94, label %95, label %96

95:                                               ; preds = %90
  call void @ERR_new()
  call void @ERR_set_debug(ptr noundef @.str, i32 noundef 905, ptr noundef @__func__.UI_set_result_ex)
  call void (i32, i32, ptr, ...) @ERR_set_error(i32 noundef 40, i32 noundef 105, ptr noundef null)
  store i32 -1, ptr %5, align 4
  store i32 1, ptr %11, align 4
  br label %153

96:                                               ; preds = %90
  %97 = load ptr, ptr %7, align 8, !tbaa !26
  %98 = getelementptr inbounds nuw %struct.ui_string_st, ptr %97, i32 0, i32 3
  %99 = load ptr, ptr %98, align 8, !tbaa !40
  %100 = getelementptr inbounds i8, ptr %99, i64 0
  store i8 0, ptr %100, align 1, !tbaa !33
  %101 = load ptr, ptr %8, align 8, !tbaa !34
  store ptr %101, ptr %10, align 8, !tbaa !34
  br label %102

102:                                              ; preds = %149, %96
  %103 = load ptr, ptr %10, align 8, !tbaa !34
  %104 = load i8, ptr %103, align 1, !tbaa !33
  %105 = icmp ne i8 %104, 0
  br i1 %105, label %106, label %152

106:                                              ; preds = %102
  %107 = load ptr, ptr %7, align 8, !tbaa !26
  %108 = getelementptr inbounds nuw %struct.ui_string_st, ptr %107, i32 0, i32 5
  %109 = getelementptr inbounds nuw %struct.anon.0, ptr %108, i32 0, i32 1
  %110 = load ptr, ptr %109, align 8, !tbaa !33
  %111 = load ptr, ptr %10, align 8, !tbaa !34
  %112 = load i8, ptr %111, align 1, !tbaa !33
  %113 = sext i8 %112 to i32
  %114 = call ptr @strchr(ptr noundef %110, i32 noundef %113) #8
  %115 = icmp ne ptr %114, null
  br i1 %115, label %116, label %127

116:                                              ; preds = %106
  %117 = load ptr, ptr %7, align 8, !tbaa !26
  %118 = getelementptr inbounds nuw %struct.ui_string_st, ptr %117, i32 0, i32 5
  %119 = getelementptr inbounds nuw %struct.anon.0, ptr %118, i32 0, i32 1
  %120 = load ptr, ptr %119, align 8, !tbaa !33
  %121 = getelementptr inbounds i8, ptr %120, i64 0
  %122 = load i8, ptr %121, align 1, !tbaa !33
  %123 = load ptr, ptr %7, align 8, !tbaa !26
  %124 = getelementptr inbounds nuw %struct.ui_string_st, ptr %123, i32 0, i32 3
  %125 = load ptr, ptr %124, align 8, !tbaa !40
  %126 = getelementptr inbounds i8, ptr %125, i64 0
  store i8 %122, ptr %126, align 1, !tbaa !33
  br label %152

127:                                              ; preds = %106
  %128 = load ptr, ptr %7, align 8, !tbaa !26
  %129 = getelementptr inbounds nuw %struct.ui_string_st, ptr %128, i32 0, i32 5
  %130 = getelementptr inbounds nuw %struct.anon.0, ptr %129, i32 0, i32 2
  %131 = load ptr, ptr %130, align 8, !tbaa !33
  %132 = load ptr, ptr %10, align 8, !tbaa !34
  %133 = load i8, ptr %132, align 1, !tbaa !33
  %134 = sext i8 %133 to i32
  %135 = call ptr @strchr(ptr noundef %131, i32 noundef %134) #8
  %136 = icmp ne ptr %135, null
  br i1 %136, label %137, label %148

137:                                              ; preds = %127
  %138 = load ptr, ptr %7, align 8, !tbaa !26
  %139 = getelementptr inbounds nuw %struct.ui_string_st, ptr %138, i32 0, i32 5
  %140 = getelementptr inbounds nuw %struct.anon.0, ptr %139, i32 0, i32 2
  %141 = load ptr, ptr %140, align 8, !tbaa !33
  %142 = getelementptr inbounds i8, ptr %141, i64 0
  %143 = load i8, ptr %142, align 1, !tbaa !33
  %144 = load ptr, ptr %7, align 8, !tbaa !26
  %145 = getelementptr inbounds nuw %struct.ui_string_st, ptr %144, i32 0, i32 3
  %146 = load ptr, ptr %145, align 8, !tbaa !40
  %147 = getelementptr inbounds i8, ptr %146, i64 0
  store i8 %143, ptr %147, align 1, !tbaa !33
  br label %152

148:                                              ; preds = %127
  br label %149

149:                                              ; preds = %148
  %150 = load ptr, ptr %10, align 8, !tbaa !34
  %151 = getelementptr inbounds nuw i8, ptr %150, i32 1
  store ptr %151, ptr %10, align 8, !tbaa !34
  br label %102, !llvm.loop !52

152:                                              ; preds = %137, %116, %102
  store i32 0, ptr %11, align 4
  br label %153

153:                                              ; preds = %152, %95
  call void @llvm.lifetime.end.p0(i64 8, ptr %10) #7
  %154 = load i32, ptr %11, align 4
  switch i32 %154, label %160 [
    i32 0, label %155
    i32 1, label %158
  ]

155:                                              ; preds = %153
  br label %156

156:                                              ; preds = %4, %4, %4, %155
  br label %157

157:                                              ; preds = %4, %156, %85
  store i32 0, ptr %5, align 4
  br label %158

158:                                              ; preds = %157, %153, %64, %46, %26
  %159 = load i32, ptr %5, align 4
  ret i32 %159

160:                                              ; preds = %153
  unreachable
}