; Function Attrs: nounwind uwtable
define range(i32 -1, 1) i32 @UI_set_result_ex(ptr noundef captures(none) %0, ptr noundef captures(none) %1, ptr noundef readonly captures(none) %2, i32 noundef %3) local_unnamed_addr #0 {
  %5 = getelementptr inbounds nuw i8, ptr %0, i64 40
  %6 = load i32, ptr %5, align 8, !tbaa !15
  %7 = and i32 %6, -2
  store i32 %7, ptr %5, align 8, !tbaa !15
  %8 = load i32, ptr %1, align 8, !tbaa !25
  switch i32 %8, label %.loopexit [
    i32 1, label %9
    i32 2, label %9
    i32 3, label %39
  ]

9:                                                ; preds = %4, %4
  %10 = getelementptr inbounds nuw i8, ptr %1, i64 40
  %11 = load i32, ptr %10, align 8, !tbaa !26
  %12 = icmp slt i32 %3, %11
  br i1 %12, label %13, label %18

13:                                               ; preds = %9
  %14 = or i32 %6, 1
  store i32 %14, ptr %5, align 8, !tbaa !15
  tail call void @ERR_new() #8
  tail call void @ERR_set_debug(ptr noundef nonnull @.str, i32 noundef 875, ptr noundef nonnull @__func__.UI_set_result_ex) #8
  %15 = load i32, ptr %10, align 8, !tbaa !26
  %16 = getelementptr inbounds nuw i8, ptr %1, i64 44
  %17 = load i32, ptr %16, align 4, !tbaa !26
  tail call void (i32, i32, ptr, ...) @ERR_set_error(i32 noundef 40, i32 noundef 101, ptr noundef nonnull @.str.8, i32 noundef %15, i32 noundef %17) #8
  br label %.loopexit

18:                                               ; preds = %9
  %19 = getelementptr inbounds nuw i8, ptr %1, i64 44
  %20 = load i32, ptr %19, align 4, !tbaa !26
  %21 = icmp sgt i32 %3, %20
  br i1 %21, label %22, label %26

22:                                               ; preds = %18
  %23 = or i32 %6, 1
  store i32 %23, ptr %5, align 8, !tbaa !15
  tail call void @ERR_new() #8
  tail call void @ERR_set_debug(ptr noundef nonnull @.str, i32 noundef 883, ptr noundef nonnull @__func__.UI_set_result_ex) #8
  %24 = load i32, ptr %10, align 8, !tbaa !26
  %25 = load i32, ptr %19, align 4, !tbaa !26
  tail call void (i32, i32, ptr, ...) @ERR_set_error(i32 noundef 40, i32 noundef 100, ptr noundef nonnull @.str.8, i32 noundef %24, i32 noundef %25) #8
  br label %.loopexit

26:                                               ; preds = %18
  %27 = getelementptr inbounds nuw i8, ptr %1, i64 24
  %28 = load ptr, ptr %27, align 8, !tbaa !31
  %29 = icmp eq ptr %28, null
  br i1 %29, label %30, label %31

30:                                               ; preds = %26
  tail call void @ERR_new() #8
  tail call void @ERR_set_debug(ptr noundef nonnull @.str, i32 noundef 891, ptr noundef nonnull @__func__.UI_set_result_ex) #8
  tail call void (i32, i32, ptr, ...) @ERR_set_error(i32 noundef 40, i32 noundef 105, ptr noundef null) #8
  br label %.loopexit

31:                                               ; preds = %26
  %32 = sext i32 %3 to i64
  tail call void @llvm.memcpy.p0.p0.i64(ptr nonnull align 1 %28, ptr align 1 %2, i64 %32, i1 false)
  %33 = load i32, ptr %19, align 4, !tbaa !26
  %.not44 = icmp sgt i32 %3, %33
  br i1 %.not44, label %37, label %34

34:                                               ; preds = %31
  %35 = load ptr, ptr %27, align 8, !tbaa !31
  %36 = getelementptr inbounds i8, ptr %35, i64 %32
  store i8 0, ptr %36, align 1, !tbaa !26
  br label %37

37:                                               ; preds = %34, %31
  %38 = getelementptr inbounds nuw i8, ptr %1, i64 32
  store i64 %32, ptr %38, align 8, !tbaa !32
  br label %.loopexit

39:                                               ; preds = %4
  %40 = getelementptr inbounds nuw i8, ptr %1, i64 24
  %41 = load ptr, ptr %40, align 8, !tbaa !31
  %42 = icmp eq ptr %41, null
  br i1 %42, label %.thread, label %43

.thread:                                          ; preds = %39
  tail call void @ERR_new() #8
  tail call void @ERR_set_debug(ptr noundef nonnull @.str, i32 noundef 905, ptr noundef nonnull @__func__.UI_set_result_ex) #8
  tail call void (i32, i32, ptr, ...) @ERR_set_error(i32 noundef 40, i32 noundef 105, ptr noundef null) #8
  br label %.loopexit

43:                                               ; preds = %39
  store i8 0, ptr %41, align 1, !tbaa !26
  %44 = load i8, ptr %2, align 1, !tbaa !26
  %.not48 = icmp eq i8 %44, 0
  br i1 %.not48, label %.loopexit, label %.lr.ph

.lr.ph:                                           ; preds = %43
  %45 = getelementptr inbounds nuw i8, ptr %1, i64 48
  %46 = load ptr, ptr %45, align 8, !tbaa !26
  %47 = getelementptr inbounds nuw i8, ptr %1, i64 56
  br label %51

48:                                               ; preds = %58
  %49 = getelementptr inbounds nuw i8, ptr %.03649, i64 1
  %50 = load i8, ptr %49, align 1, !tbaa !26
  %.not = icmp eq i8 %50, 0
  br i1 %.not, label %.loopexit, label %51, !llvm.loop !42

51:                                               ; preds = %.lr.ph, %48
  %52 = phi i8 [ %44, %.lr.ph ], [ %50, %48 ]
  %.03649 = phi ptr [ %2, %.lr.ph ], [ %49, %48 ]
  %53 = sext i8 %52 to i32
  %54 = tail call ptr @strchr(ptr noundef nonnull dereferenceable(1) %46, i32 noundef %53) #9
  %.not42 = icmp eq ptr %54, null
  br i1 %.not42, label %58, label %55

55:                                               ; preds = %51
  %56 = load i8, ptr %46, align 1, !tbaa !26
  %57 = load ptr, ptr %40, align 8, !tbaa !31
  store i8 %56, ptr %57, align 1, !tbaa !26
  br label %.loopexit

58:                                               ; preds = %51
  %59 = load ptr, ptr %47, align 8, !tbaa !26
  %60 = tail call ptr @strchr(ptr noundef nonnull dereferenceable(1) %59, i32 noundef %53) #9
  %.not43 = icmp eq ptr %60, null
  br i1 %.not43, label %48, label %61

61:                                               ; preds = %58
  %62 = load i8, ptr %59, align 1, !tbaa !26
  %63 = load ptr, ptr %40, align 8, !tbaa !31
  store i8 %62, ptr %63, align 1, !tbaa !26
  br label %.loopexit

.loopexit:                                        ; preds = %48, %43, %4, %37, %55, %61, %.thread, %30, %22, %13
  %.037 = phi i32 [ -1, %13 ], [ -1, %22 ], [ -1, %30 ], [ -1, %.thread ], [ 0, %61 ], [ 0, %55 ], [ 0, %37 ], [ 0, %4 ], [ 0, %43 ], [ 0, %48 ]
  ret i32 %.037
}